target datalayout = "e-m:e-p270:32:32-p271:32:32-p272:64:64-i64:64-i128:128-f80:128-n8:16:32:64-S128"
target triple = "x86_64-pc-linux-gnu"

%struct._HF_OF_INTEREST_INFO = type { i32, ptr }
%struct._TSUM_PREFERENCES = type { i32, i8, ptr, ptr, i8, i32, i8, i8, i8, i8, i8, i8, i8, i8 }
%struct._PKT_INFO = type { i32, %struct.nstime_t, i8, i8, i8, i8, i8, i32, i32, i16, i16, i16, i8, i8, i16, i16, i64, i64, i16, i8, i8, i32, i16, i16, i8, %struct._RRPD }
%struct.nstime_t = type { i64, i32 }
%struct._RRPD = type { i8, i8, i32, i64, i64, i8, i8, i32, %struct.nstime_t, i32, %struct.nstime_t, i32, %struct.nstime_t, i32, %struct.nstime_t, i32, i32, i32 }
%struct._packet_info = type { ptr, ptr, i32, i32, %struct.nstime_t, %struct.nstime_t, %struct.nstime_t, i8, ptr, ptr, ptr, ptr, %struct._address, %struct._address, %struct._address, %struct._address, %struct._address, %struct._address, i32, ptr, i8, [3 x i8], %struct.anon, i32, i32, i32, i32, ptr, i8, ptr, ptr, i16, i16, i32, i32, i16, i32, i32, ptr, ptr, ptr, i8, i8, i16, i16, i16, i32, i16, i16, ptr, ptr, ptr, ptr, ptr, i32, i32 }
%struct._address = type { i32, i32, ptr, ptr }
%struct.anon = type { i8, [3 x i8] }

@hf_of_interest = external global [29 x %struct._HF_OF_INTEREST_INFO], align 16
@preferences = external global %struct._TSUM_PREFERENCES, align 8

; Function Attrs: null_pointer_is_valid sspstrong uwtable
define hidden i32 @decode_gudp(ptr noundef %0, ptr noundef %1, ptr noundef %2) #0 {
  %4 = alloca ptr, align 8
  %5 = alloca ptr, align 8
  %6 = alloca ptr, align 8
  %7 = alloca [16 x i32], align 16
  %8 = alloca i64, align 8
  store ptr %0, ptr %4, align 8
  store ptr %1, ptr %5, align 8
  store ptr %2, ptr %6, align 8
  call void @llvm.lifetime.start.p0(i64 64, ptr %7) #3
  call void @llvm.lifetime.start.p0(i64 8, ptr %8) #3
  %9 = load ptr, ptr %4, align 8
  %10 = getelementptr inbounds nuw %struct._packet_info, ptr %9, i32 0, i32 24
  %11 = load i32, ptr %10, align 4
  %12 = trunc i32 %11 to i16
  %13 = load ptr, ptr %6, align 8
  %14 = getelementptr inbounds nuw %struct._PKT_INFO, ptr %13, i32 0, i32 9
  store i16 %12, ptr %14, align 8
  %15 = load ptr, ptr %4, align 8
  %16 = getelementptr inbounds nuw %struct._packet_info, ptr %15, i32 0, i32 25
  %17 = load i32, ptr %16, align 8
  %18 = trunc i32 %17 to i16
  %19 = load ptr, ptr %6, align 8
  %20 = getelementptr inbounds nuw %struct._PKT_INFO, ptr %19, i32 0, i32 10
  store i16 %18, ptr %20, align 2
  %21 = load ptr, ptr %5, align 8
  %22 = load i32, ptr getelementptr ([29 x %struct._HF_OF_INTEREST_INFO], ptr @hf_of_interest, i64 0, i64 15), align 16
  %23 = getelementptr inbounds [16 x i32], ptr %7, i64 0, i64 0
  %24 = call i32 @extract_uint(ptr noundef %21, i32 noundef %22, ptr noundef %23, ptr noundef %8)
  %25 = icmp ne i32 %24, 0
  br i1 %25, label %36, label %26

26:                                               ; preds = %3
  %27 = load i64, ptr %8, align 8
  %28 = icmp ne i64 %27, 0
  br i1 %28, label %29, label %35

29:                                               ; preds = %26
  %30 = getelementptr [16 x i32], ptr %7, i64 0, i64 0
  %31 = load i32, ptr %30, align 16
  %32 = load ptr, ptr %6, align 8
  %33 = getelementptr inbounds nuw %struct._PKT_INFO, ptr %32, i32 0, i32 25
  %34 = getelementptr inbounds nuw %struct._RRPD, ptr %33, i32 0, i32 2
  store i32 %31, ptr %34, align 4
  br label %35

35:                                               ; preds = %29, %26
  br label %36

36:                                               ; preds = %35, %3
  %37 = load ptr, ptr %5, align 8
  %38 = load i32, ptr getelementptr ([29 x %struct._HF_OF_INTEREST_INFO], ptr @hf_of_interest, i64 0, i64 16), align 16
  %39 = getelementptr inbounds [16 x i32], ptr %7, i64 0, i64 0
  %40 = call i32 @extract_uint(ptr noundef %37, i32 noundef %38, ptr noundef %39, ptr noundef %8)
  %41 = icmp ne i32 %40, 0
  br i1 %41, label %52, label %42

42:                                               ; preds = %36
  %43 = load i64, ptr %8, align 8
  %44 = icmp ne i64 %43, 0
  br i1 %44, label %45, label %51

45:                                               ; preds = %42
  %46 = getelementptr [16 x i32], ptr %7, i64 0, i64 0
  %47 = load i32, ptr %46, align 16
  %48 = trunc i32 %47 to i16
  %49 = load ptr, ptr %6, align 8
  %50 = getelementptr inbounds nuw %struct._PKT_INFO, ptr %49, i32 0, i32 11
  store i16 %48, ptr %50, align 4
  br label %51

51:                                               ; preds = %45, %42
  br label %52

52:                                               ; preds = %51, %36
  %53 = load ptr, ptr getelementptr inbounds nuw (%struct._TSUM_PREFERENCES, ptr @preferences, i32 0, i32 3), align 8
  %54 = load ptr, ptr %6, align 8
  %55 = getelementptr inbounds nuw %struct._PKT_INFO, ptr %54, i32 0, i32 10
  %56 = load i16, ptr %55, align 2
  %57 = zext i16 %56 to i64
  %58 = inttoptr i64 %57 to ptr
  %59 = call ptr @wmem_map_lookup(ptr noundef %53, ptr noundef %58)
  %60 = icmp ne ptr %59, null
  br i1 %60, label %70, label %61

61:                                               ; preds = %52
  %62 = load ptr, ptr getelementptr inbounds nuw (%struct._TSUM_PREFERENCES, ptr @preferences, i32 0, i32 3), align 8
  %63 = load ptr, ptr %6, align 8
  %64 = getelementptr inbounds nuw %struct._PKT_INFO, ptr %63, i32 0, i32 9
  %65 = load i16, ptr %64, align 8
  %66 = zext i16 %65 to i64
  %67 = inttoptr i64 %66 to ptr
  %68 = call ptr @wmem_map_lookup(ptr noundef %62, ptr noundef %67)
  %69 = icmp ne ptr %68, null
  br i1 %69, label %70, label %98

70:                                               ; preds = %61, %52
  %71 = load ptr, ptr getelementptr inbounds nuw (%struct._TSUM_PREFERENCES, ptr @preferences, i32 0, i32 3), align 8
  %72 = load ptr, ptr %6, align 8
  %73 = getelementptr inbounds nuw %struct._PKT_INFO, ptr %72, i32 0, i32 10
  %74 = load i16, ptr %73, align 2
  %75 = zext i16 %74 to i64
  %76 = inttoptr i64 %75 to ptr
  %77 = call ptr @wmem_map_lookup(ptr noundef %71, ptr noundef %76)
  %78 = icmp ne ptr %77, null
  br i1 %78, label %79, label %83

79:                                               ; preds = %70
  %80 = load ptr, ptr %6, align 8
  %81 = getelementptr inbounds nuw %struct._PKT_INFO, ptr %80, i32 0, i32 25
  %82 = getelementptr inbounds nuw %struct._RRPD, ptr %81, i32 0, i32 0
  store i8 1, ptr %82, align 8
  br label %83

83:                                               ; preds = %79, %70
  %84 = load ptr, ptr %6, align 8
  %85 = getelementptr inbounds nuw %struct._PKT_INFO, ptr %84, i32 0, i32 25
  %86 = getelementptr inbounds nuw %struct._RRPD, ptr %85, i32 0, i32 3
  store i64 0, ptr %86, align 8
  %87 = load ptr, ptr %6, align 8
  %88 = getelementptr inbounds nuw %struct._PKT_INFO, ptr %87, i32 0, i32 25
  %89 = getelementptr inbounds nuw %struct._RRPD, ptr %88, i32 0, i32 4
  store i64 0, ptr %89, align 8
  %90 = load ptr, ptr %6, align 8
  %91 = getelementptr inbounds nuw %struct._PKT_INFO, ptr %90, i32 0, i32 25
  %92 = getelementptr inbounds nuw %struct._RRPD, ptr %91, i32 0, i32 5
  store i8 0, ptr %92, align 8
  %93 = load ptr, ptr %6, align 8
  %94 = getelementptr inbounds nuw %struct._PKT_INFO, ptr %93, i32 0, i32 25
  %95 = getelementptr inbounds nuw %struct._RRPD, ptr %94, i32 0, i32 15
  store i32 3, ptr %95, align 8
  %96 = load ptr, ptr %6, align 8
  %97 = getelementptr inbounds nuw %struct._PKT_INFO, ptr %96, i32 0, i32 24
  store i8 1, ptr %97, align 4
  br label %98

98:                                               ; preds = %83, %61
  call void @llvm.lifetime.end.p0(i64 8, ptr %8) #3
  call void @llvm.lifetime.end.p0(i64 64, ptr %7) #3
  ret i32 1
}