; Function Attrs: null_pointer_is_valid sspstrong uwtable
define hidden noundef i32 @decode_gudp(ptr noundef readonly captures(none) %0, ptr noundef %1, ptr noundef captures(none) initializes((40, 44)) %2) local_unnamed_addr #0 {
  %4 = alloca [16 x i32], align 16
  %5 = alloca i64, align 8
  call void @llvm.lifetime.start.p0(i64 64, ptr nonnull %4) #5
  call void @llvm.lifetime.start.p0(i64 8, ptr nonnull %5) #5
  %6 = getelementptr inbounds nuw i8, ptr %0, i64 284
  %7 = load i32, ptr %6, align 4
  %8 = trunc i32 %7 to i16
  %9 = getelementptr inbounds nuw i8, ptr %2, i64 40
  store i16 %8, ptr %9, align 8
  %10 = getelementptr inbounds nuw i8, ptr %0, i64 288
  %11 = load i32, ptr %10, align 8
  %12 = trunc i32 %11 to i16
  %13 = getelementptr inbounds nuw i8, ptr %2, i64 42
  store i16 %12, ptr %13, align 2
  %14 = load i32, ptr getelementptr inbounds nuw (i8, ptr @hf_of_interest, i64 240), align 16
  %15 = call i32 @extract_uint(ptr noundef %1, i32 noundef %14, ptr noundef nonnull %4, ptr noundef nonnull %5)
  %16 = icmp eq i32 %15, 0
  %17 = load i64, ptr %5, align 8
  %18 = icmp ne i64 %17, 0
  %or.cond = select i1 %16, i1 %18, i1 false
  br i1 %or.cond, label %19, label %22

19:                                               ; preds = %3
  %20 = load i32, ptr %4, align 16
  %21 = getelementptr inbounds nuw i8, ptr %2, i64 92
  store i32 %20, ptr %21, align 4
  br label %22

22:                                               ; preds = %19, %3
  %23 = load i32, ptr getelementptr inbounds nuw (i8, ptr @hf_of_interest, i64 256), align 16
  %24 = call i32 @extract_uint(ptr noundef %1, i32 noundef %23, ptr noundef nonnull %4, ptr noundef nonnull %5)
  %25 = icmp eq i32 %24, 0
  %26 = load i64, ptr %5, align 8
  %27 = icmp ne i64 %26, 0
  %or.cond3 = select i1 %25, i1 %27, i1 false
  br i1 %or.cond3, label %28, label %32

28:                                               ; preds = %22
  %29 = load i32, ptr %4, align 16
  %30 = trunc i32 %29 to i16
  %31 = getelementptr inbounds nuw i8, ptr %2, i64 44
  store i16 %30, ptr %31, align 4
  br label %32

32:                                               ; preds = %28, %22
  %33 = load ptr, ptr getelementptr inbounds nuw (i8, ptr @preferences, i64 16), align 8
  %34 = load i16, ptr %13, align 2
  %35 = zext i16 %34 to i64
  %36 = inttoptr i64 %35 to ptr
  %37 = call ptr @wmem_map_lookup(ptr noundef %33, ptr noundef %36)
  %.not = icmp eq ptr %37, null
  br i1 %.not, label %38, label %44

38:                                               ; preds = %32
  %39 = load ptr, ptr getelementptr inbounds nuw (i8, ptr @preferences, i64 16), align 8
  %40 = load i16, ptr %9, align 8
  %41 = zext i16 %40 to i64
  %42 = inttoptr i64 %41 to ptr
  %43 = call ptr @wmem_map_lookup(ptr noundef %39, ptr noundef %42)
  %.not20 = icmp eq ptr %43, null
  br i1 %.not20, label %56, label %44

44:                                               ; preds = %38, %32
  %45 = load ptr, ptr getelementptr inbounds nuw (i8, ptr @preferences, i64 16), align 8
  %46 = load i16, ptr %13, align 2
  %47 = zext i16 %46 to i64
  %48 = inttoptr i64 %47 to ptr
  %49 = call ptr @wmem_map_lookup(ptr noundef %45, ptr noundef %48)
  %.not21 = icmp eq ptr %49, null
  br i1 %.not21, label %52, label %50

50:                                               ; preds = %44
  %51 = getelementptr inbounds nuw i8, ptr %2, i64 88
  store i8 1, ptr %51, align 8
  br label %52

52:                                               ; preds = %50, %44
  %53 = getelementptr inbounds nuw i8, ptr %2, i64 96
  %54 = getelementptr inbounds nuw i8, ptr %2, i64 208
  call void @llvm.memset.p0.i64(ptr noundef nonnull align 8 dereferenceable(17) %53, i8 0, i64 17, i1 false)
  store i32 3, ptr %54, align 8
  %55 = getelementptr inbounds nuw i8, ptr %2, i64 84
  store i8 1, ptr %55, align 4
  br label %56

56:                                               ; preds = %52, %38
  call void @llvm.lifetime.end.p0(i64 8, ptr nonnull %5) #5
  call void @llvm.lifetime.end.p0(i64 64, ptr nonnull %4) #5
  ret i32 1
}